; Function Attrs: nounwind uwtable
define i32 @_php_stream_mkdir(ptr noundef %0, i32 noundef %1, i32 noundef %2, ptr noundef %3) local_unnamed_addr #2 {
  %5 = tail call ptr @php_stream_locate_url_wrapper(ptr noundef %0, ptr noundef null, i32 noundef 0)
  %.not = icmp eq ptr %5, null
  br i1 %.not, label %13, label %6

6:                                                ; preds = %4
  %7 = load ptr, ptr %5, align 8
  %.not13 = icmp eq ptr %7, null
  br i1 %.not13, label %13, label %8

8:                                                ; preds = %6
  %9 = getelementptr inbounds i8, ptr %7, i64 64
  %10 = load ptr, ptr %9, align 8
  %.not14 = icmp eq ptr %10, null
  br i1 %.not14, label %13, label %11

11:                                               ; preds = %8
  %12 = tail call i32 %10(ptr noundef nonnull %5, ptr noundef %0, i32 noundef %1, i32 noundef %2, ptr noundef %3) #27
  br label %13

13:                                               ; preds = %4, %6, %8, %11
  %.0 = phi i32 [ %12, %11 ], [ 0, %8 ], [ 0, %6 ], [ 0, %4 ]
  ret i32 %.0
}